
vuln:     file format elf32-i386


Disassembly of section .init:

08049000 <_init>:
 8049000:	53                   	push   ebx
 8049001:	83 ec 08             	sub    esp,0x8
 8049004:	e8 d7 00 00 00       	call   80490e0 <__x86.get_pc_thunk.bx>
 8049009:	81 c3 f7 2f 00 00    	add    ebx,0x2ff7
 804900f:	8b 83 f4 ff ff ff    	mov    eax,DWORD PTR [ebx-0xc]
 8049015:	85 c0                	test   eax,eax
 8049017:	74 02                	je     804901b <_init+0x1b>
 8049019:	ff d0                	call   eax
 804901b:	83 c4 08             	add    esp,0x8
 804901e:	5b                   	pop    ebx
 804901f:	c3                   	ret    

Disassembly of section .plt:

08049020 <setbuf@plt-0x10>:
 8049020:	ff 35 04 c0 04 08    	push   DWORD PTR ds:0x804c004
 8049026:	ff 25 08 c0 04 08    	jmp    DWORD PTR ds:0x804c008
 804902c:	00 00                	add    BYTE PTR [eax],al
	...

08049030 <setbuf@plt>:
 8049030:	ff 25 0c c0 04 08    	jmp    DWORD PTR ds:0x804c00c
 8049036:	68 00 00 00 00       	push   0x0
 804903b:	e9 e0 ff ff ff       	jmp    8049020 <_init+0x20>

08049040 <printf@plt>:
 8049040:	ff 25 10 c0 04 08    	jmp    DWORD PTR ds:0x804c010
 8049046:	68 08 00 00 00       	push   0x8
 804904b:	e9 d0 ff ff ff       	jmp    8049020 <_init+0x20>

08049050 <gets@plt>:
 8049050:	ff 25 14 c0 04 08    	jmp    DWORD PTR ds:0x804c014
 8049056:	68 10 00 00 00       	push   0x10
 804905b:	e9 c0 ff ff ff       	jmp    8049020 <_init+0x20>

08049060 <puts@plt>:
 8049060:	ff 25 18 c0 04 08    	jmp    DWORD PTR ds:0x804c018
 8049066:	68 18 00 00 00       	push   0x18
 804906b:	e9 b0 ff ff ff       	jmp    8049020 <_init+0x20>

08049070 <system@plt>:
 8049070:	ff 25 1c c0 04 08    	jmp    DWORD PTR ds:0x804c01c
 8049076:	68 20 00 00 00       	push   0x20
 804907b:	e9 a0 ff ff ff       	jmp    8049020 <_init+0x20>

08049080 <__libc_start_main@plt>:
 8049080:	ff 25 20 c0 04 08    	jmp    DWORD PTR ds:0x804c020
 8049086:	68 28 00 00 00       	push   0x28
 804908b:	e9 90 ff ff ff       	jmp    8049020 <_init+0x20>

Disassembly of section .text:

08049090 <_start>:
 8049090:	31 ed                	xor    ebp,ebp
 8049092:	5e                   	pop    esi
 8049093:	89 e1                	mov    ecx,esp
 8049095:	83 e4 f0             	and    esp,0xfffffff0
 8049098:	50                   	push   eax
 8049099:	54                   	push   esp
 804909a:	52                   	push   edx
 804909b:	e8 23 00 00 00       	call   80490c3 <_start+0x33>
 80490a0:	81 c3 60 2f 00 00    	add    ebx,0x2f60
 80490a6:	8d 83 00 d3 ff ff    	lea    eax,[ebx-0x2d00]
 80490ac:	50                   	push   eax
 80490ad:	8d 83 a0 d2 ff ff    	lea    eax,[ebx-0x2d60]
 80490b3:	50                   	push   eax
 80490b4:	51                   	push   ecx
 80490b5:	56                   	push   esi
 80490b6:	c7 c0 20 92 04 08    	mov    eax,0x8049220
 80490bc:	50                   	push   eax
 80490bd:	e8 be ff ff ff       	call   8049080 <__libc_start_main@plt>
 80490c2:	f4                   	hlt    
 80490c3:	8b 1c 24             	mov    ebx,DWORD PTR [esp]
 80490c6:	c3                   	ret    
 80490c7:	66 90                	xchg   ax,ax
 80490c9:	66 90                	xchg   ax,ax
 80490cb:	66 90                	xchg   ax,ax
 80490cd:	66 90                	xchg   ax,ax
 80490cf:	90                   	nop

080490d0 <_dl_relocate_static_pie>:
 80490d0:	c3                   	ret    
 80490d1:	66 90                	xchg   ax,ax
 80490d3:	66 90                	xchg   ax,ax
 80490d5:	66 90                	xchg   ax,ax
 80490d7:	66 90                	xchg   ax,ax
 80490d9:	66 90                	xchg   ax,ax
 80490db:	66 90                	xchg   ax,ax
 80490dd:	66 90                	xchg   ax,ax
 80490df:	90                   	nop

080490e0 <__x86.get_pc_thunk.bx>:
 80490e0:	8b 1c 24             	mov    ebx,DWORD PTR [esp]
 80490e3:	c3                   	ret    
 80490e4:	66 90                	xchg   ax,ax
 80490e6:	66 90                	xchg   ax,ax
 80490e8:	66 90                	xchg   ax,ax
 80490ea:	66 90                	xchg   ax,ax
 80490ec:	66 90                	xchg   ax,ax
 80490ee:	66 90                	xchg   ax,ax

080490f0 <deregister_tm_clones>:
 80490f0:	b8 2c c0 04 08       	mov    eax,0x804c02c
 80490f5:	3d 2c c0 04 08       	cmp    eax,0x804c02c
 80490fa:	74 24                	je     8049120 <deregister_tm_clones+0x30>
 80490fc:	b8 00 00 00 00       	mov    eax,0x0
 8049101:	85 c0                	test   eax,eax
 8049103:	74 1b                	je     8049120 <deregister_tm_clones+0x30>
 8049105:	55                   	push   ebp
 8049106:	89 e5                	mov    ebp,esp
 8049108:	83 ec 14             	sub    esp,0x14
 804910b:	68 2c c0 04 08       	push   0x804c02c
 8049110:	ff d0                	call   eax
 8049112:	83 c4 10             	add    esp,0x10
 8049115:	c9                   	leave  
 8049116:	c3                   	ret    
 8049117:	8d b4 26 00 00 00 00 	lea    esi,[esi+eiz*1+0x0]
 804911e:	66 90                	xchg   ax,ax
 8049120:	c3                   	ret    
 8049121:	8d b4 26 00 00 00 00 	lea    esi,[esi+eiz*1+0x0]
 8049128:	8d b4 26 00 00 00 00 	lea    esi,[esi+eiz*1+0x0]
 804912f:	90                   	nop

08049130 <register_tm_clones>:
 8049130:	b8 2c c0 04 08       	mov    eax,0x804c02c
 8049135:	2d 2c c0 04 08       	sub    eax,0x804c02c
 804913a:	89 c2                	mov    edx,eax
 804913c:	c1 e8 1f             	shr    eax,0x1f
 804913f:	c1 fa 02             	sar    edx,0x2
 8049142:	01 d0                	add    eax,edx
 8049144:	d1 f8                	sar    eax,1
 8049146:	74 20                	je     8049168 <register_tm_clones+0x38>
 8049148:	ba 00 00 00 00       	mov    edx,0x0
 804914d:	85 d2                	test   edx,edx
 804914f:	74 17                	je     8049168 <register_tm_clones+0x38>
 8049151:	55                   	push   ebp
 8049152:	89 e5                	mov    ebp,esp
 8049154:	83 ec 10             	sub    esp,0x10
 8049157:	50                   	push   eax
 8049158:	68 2c c0 04 08       	push   0x804c02c
 804915d:	ff d2                	call   edx
 804915f:	83 c4 10             	add    esp,0x10
 8049162:	c9                   	leave  
 8049163:	c3                   	ret    
 8049164:	8d 74 26 00          	lea    esi,[esi+eiz*1+0x0]
 8049168:	c3                   	ret    
 8049169:	8d b4 26 00 00 00 00 	lea    esi,[esi+eiz*1+0x0]

08049170 <__do_global_dtors_aux>:
 8049170:	f3 0f 1e fb          	endbr32 
 8049174:	80 3d 2c c0 04 08 00 	cmp    BYTE PTR ds:0x804c02c,0x0
 804917b:	75 1b                	jne    8049198 <__do_global_dtors_aux+0x28>
 804917d:	55                   	push   ebp
 804917e:	89 e5                	mov    ebp,esp
 8049180:	83 ec 08             	sub    esp,0x8
 8049183:	e8 68 ff ff ff       	call   80490f0 <deregister_tm_clones>
 8049188:	c6 05 2c c0 04 08 01 	mov    BYTE PTR ds:0x804c02c,0x1
 804918f:	c9                   	leave  
 8049190:	c3                   	ret    
 8049191:	8d b4 26 00 00 00 00 	lea    esi,[esi+eiz*1+0x0]
 8049198:	c3                   	ret    
 8049199:	8d b4 26 00 00 00 00 	lea    esi,[esi+eiz*1+0x0]

080491a0 <frame_dummy>:
 80491a0:	f3 0f 1e fb          	endbr32 
 80491a4:	eb 8a                	jmp    8049130 <register_tm_clones>

080491a6 <win>:
 80491a6:	55                   	push   ebp
 80491a7:	89 e5                	mov    ebp,esp
 80491a9:	53                   	push   ebx
 80491aa:	83 ec 04             	sub    esp,0x4
 80491ad:	e8 de 00 00 00       	call   8049290 <__x86.get_pc_thunk.ax>
 80491b2:	05 4e 2e 00 00       	add    eax,0x2e4e
 80491b7:	83 ec 0c             	sub    esp,0xc
 80491ba:	8d 90 08 e0 ff ff    	lea    edx,[eax-0x1ff8]
 80491c0:	52                   	push   edx
 80491c1:	89 c3                	mov    ebx,eax
 80491c3:	e8 a8 fe ff ff       	call   8049070 <system@plt>
 80491c8:	83 c4 10             	add    esp,0x10
 80491cb:	90                   	nop
 80491cc:	8b 5d fc             	mov    ebx,DWORD PTR [ebp-0x4]
 80491cf:	c9                   	leave  
 80491d0:	c3                   	ret    

080491d1 <vuln>:
 80491d1:	55                   	push   ebp
 80491d2:	89 e5                	mov    ebp,esp
 80491d4:	53                   	push   ebx
 80491d5:	83 ec 44             	sub    esp,0x44
 80491d8:	e8 03 ff ff ff       	call   80490e0 <__x86.get_pc_thunk.bx>
 80491dd:	81 c3 23 2e 00 00    	add    ebx,0x2e23
 80491e3:	83 ec 0c             	sub    esp,0xc
 80491e6:	8d 83 10 e0 ff ff    	lea    eax,[ebx-0x1ff0]
 80491ec:	50                   	push   eax
 80491ed:	e8 6e fe ff ff       	call   8049060 <puts@plt>
 80491f2:	83 c4 10             	add    esp,0x10
 80491f5:	83 ec 0c             	sub    esp,0xc
 80491f8:	8d 45 b8             	lea    eax,[ebp-0x48]
 80491fb:	50                   	push   eax
 80491fc:	e8 4f fe ff ff       	call   8049050 <gets@plt>
 8049201:	83 c4 10             	add    esp,0x10
 8049204:	83 ec 08             	sub    esp,0x8
 8049207:	8d 45 b8             	lea    eax,[ebp-0x48]
 804920a:	50                   	push   eax
 804920b:	8d 83 27 e0 ff ff    	lea    eax,[ebx-0x1fd9]
 8049211:	50                   	push   eax
 8049212:	e8 29 fe ff ff       	call   8049040 <printf@plt>
 8049217:	83 c4 10             	add    esp,0x10
 804921a:	90                   	nop
 804921b:	8b 5d fc             	mov    ebx,DWORD PTR [ebp-0x4]
 804921e:	c9                   	leave  
 804921f:	c3                   	ret    

08049220 <main>:
 8049220:	8d 4c 24 04          	lea    ecx,[esp+0x4]
 8049224:	83 e4 f0             	and    esp,0xfffffff0
 8049227:	ff 71 fc             	push   DWORD PTR [ecx-0x4]
 804922a:	55                   	push   ebp
 804922b:	89 e5                	mov    ebp,esp
 804922d:	53                   	push   ebx
 804922e:	51                   	push   ecx
 804922f:	e8 ac fe ff ff       	call   80490e0 <__x86.get_pc_thunk.bx>
 8049234:	81 c3 cc 2d 00 00    	add    ebx,0x2dcc
 804923a:	8b 83 f8 ff ff ff    	mov    eax,DWORD PTR [ebx-0x8]
 8049240:	8b 00                	mov    eax,DWORD PTR [eax]
 8049242:	83 ec 08             	sub    esp,0x8
 8049245:	6a 00                	push   0x0
 8049247:	50                   	push   eax
 8049248:	e8 e3 fd ff ff       	call   8049030 <setbuf@plt>
 804924d:	83 c4 10             	add    esp,0x10
 8049250:	8b 83 fc ff ff ff    	mov    eax,DWORD PTR [ebx-0x4]
 8049256:	8b 00                	mov    eax,DWORD PTR [eax]
 8049258:	83 ec 08             	sub    esp,0x8
 804925b:	6a 00                	push   0x0
 804925d:	50                   	push   eax
 804925e:	e8 cd fd ff ff       	call   8049030 <setbuf@plt>
 8049263:	83 c4 10             	add    esp,0x10
 8049266:	8b 83 f0 ff ff ff    	mov    eax,DWORD PTR [ebx-0x10]
 804926c:	8b 00                	mov    eax,DWORD PTR [eax]
 804926e:	83 ec 08             	sub    esp,0x8
 8049271:	6a 00                	push   0x0
 8049273:	50                   	push   eax
 8049274:	e8 b7 fd ff ff       	call   8049030 <setbuf@plt>
 8049279:	83 c4 10             	add    esp,0x10
 804927c:	e8 50 ff ff ff       	call   80491d1 <vuln>
 8049281:	b8 00 00 00 00       	mov    eax,0x0
 8049286:	8d 65 f8             	lea    esp,[ebp-0x8]
 8049289:	59                   	pop    ecx
 804928a:	5b                   	pop    ebx
 804928b:	5d                   	pop    ebp
 804928c:	8d 61 fc             	lea    esp,[ecx-0x4]
 804928f:	c3                   	ret    

08049290 <__x86.get_pc_thunk.ax>:
 8049290:	8b 04 24             	mov    eax,DWORD PTR [esp]
 8049293:	c3                   	ret    
 8049294:	66 90                	xchg   ax,ax
 8049296:	66 90                	xchg   ax,ax
 8049298:	66 90                	xchg   ax,ax
 804929a:	66 90                	xchg   ax,ax
 804929c:	66 90                	xchg   ax,ax
 804929e:	66 90                	xchg   ax,ax

080492a0 <__libc_csu_init>:
 80492a0:	55                   	push   ebp
 80492a1:	e8 5b 00 00 00       	call   8049301 <__x86.get_pc_thunk.bp>
 80492a6:	81 c5 5a 2d 00 00    	add    ebp,0x2d5a
 80492ac:	57                   	push   edi
 80492ad:	56                   	push   esi
 80492ae:	53                   	push   ebx
 80492af:	83 ec 0c             	sub    esp,0xc
 80492b2:	89 eb                	mov    ebx,ebp
 80492b4:	8b 7c 24 28          	mov    edi,DWORD PTR [esp+0x28]
 80492b8:	e8 43 fd ff ff       	call   8049000 <_init>
 80492bd:	8d 9d 04 ff ff ff    	lea    ebx,[ebp-0xfc]
 80492c3:	8d 85 00 ff ff ff    	lea    eax,[ebp-0x100]
 80492c9:	29 c3                	sub    ebx,eax
 80492cb:	c1 fb 02             	sar    ebx,0x2
 80492ce:	74 25                	je     80492f5 <__libc_csu_init+0x55>
 80492d0:	31 f6                	xor    esi,esi
 80492d2:	8d b6 00 00 00 00    	lea    esi,[esi+0x0]
 80492d8:	83 ec 04             	sub    esp,0x4
 80492db:	57                   	push   edi
 80492dc:	ff 74 24 2c          	push   DWORD PTR [esp+0x2c]
 80492e0:	ff 74 24 2c          	push   DWORD PTR [esp+0x2c]
 80492e4:	ff 94 b5 00 ff ff ff 	call   DWORD PTR [ebp+esi*4-0x100]
 80492eb:	83 c6 01             	add    esi,0x1
 80492ee:	83 c4 10             	add    esp,0x10
 80492f1:	39 f3                	cmp    ebx,esi
 80492f3:	75 e3                	jne    80492d8 <__libc_csu_init+0x38>
 80492f5:	83 c4 0c             	add    esp,0xc
 80492f8:	5b                   	pop    ebx
 80492f9:	5e                   	pop    esi
 80492fa:	5f                   	pop    edi
 80492fb:	5d                   	pop    ebp
 80492fc:	c3                   	ret    
 80492fd:	8d 76 00             	lea    esi,[esi+0x0]

08049300 <__libc_csu_fini>:
 8049300:	c3                   	ret    

08049301 <__x86.get_pc_thunk.bp>:
 8049301:	8b 2c 24             	mov    ebp,DWORD PTR [esp]
 8049304:	c3                   	ret    

Disassembly of section .fini:

08049308 <_fini>:
 8049308:	53                   	push   ebx
 8049309:	83 ec 08             	sub    esp,0x8
 804930c:	e8 cf fd ff ff       	call   80490e0 <__x86.get_pc_thunk.bx>
 8049311:	81 c3 ef 2c 00 00    	add    ebx,0x2cef
 8049317:	83 c4 08             	add    esp,0x8
 804931a:	5b                   	pop    ebx
 804931b:	c3                   	ret    
